target datalayout = "e-m:e-p270:32:32-p271:32:32-p272:64:64-i64:64-i128:128-f80:128-n8:16:32:64-S128"
target triple = "x86_64-pc-linux-gnu"

%struct.sockaddr = type { i16, [14 x i8] }
%struct.in_addr = type { i32 }
%struct.in6_addr = type { %union.anon }
%union.anon = type { [4 x i32] }
%struct.sockaddr_in6 = type { i16, i16, i32, %struct.in6_addr, i32 }
%struct.sockaddr_in = type { i16, i16, %struct.in_addr, [8 x i8] }

@.str.23 = private unnamed_addr constant [6 x i8] c"%s:%d\00", align 1
@.str.24 = private unnamed_addr constant [8 x i8] c"[%s]:%d\00", align 1
@.str.25 = private unnamed_addr constant [24 x i8] c"<addr with socktype %d>\00", align 1

; Function Attrs: inlinehint nounwind uwtable
define internal zeroext i16 @__bswap_16(i16 noundef zeroext %0) #5 {
  %2 = alloca i16, align 2
  store i16 %0, ptr %2, align 2
  %3 = load i16, ptr %2, align 2
  %4 = zext i16 %3 to i32
  %5 = ashr i32 %4, 8
  %6 = and i32 %5, 255
  %7 = load i16, ptr %2, align 2
  %8 = zext i16 %7 to i32
  %9 = and i32 %8, 255
  %10 = shl i32 %9, 8
  %11 = or i32 %6, %10
  %12 = trunc i32 %11 to i16
  ret i16 %12
}

; Function Attrs: nounwind uwtable
define ptr @evutil_format_sockaddr_port_(ptr noundef %0, ptr noundef %1, i64 noundef %2) #0 {
  %4 = alloca ptr, align 8
  %5 = alloca ptr, align 8
  %6 = alloca ptr, align 8
  %7 = alloca i64, align 8
  %8 = alloca [128 x i8], align 16
  %9 = alloca ptr, align 8
  %10 = alloca i32, align 4
  %11 = alloca ptr, align 8
  %12 = alloca i32, align 4
  %13 = alloca ptr, align 8
  store ptr %0, ptr %5, align 8
  store ptr %1, ptr %6, align 8
  store i64 %2, ptr %7, align 8
  call void @llvm.lifetime.start.p0(i64 128, ptr %8) #11
  call void @llvm.lifetime.start.p0(i64 8, ptr %9) #11
  store ptr null, ptr %9, align 8
  call void @llvm.lifetime.start.p0(i64 4, ptr %10) #11
  %14 = load ptr, ptr %5, align 8
  %15 = getelementptr inbounds nuw %struct.sockaddr, ptr %14, i32 0, i32 0
  %16 = load i16, ptr %15, align 2
  %17 = zext i16 %16 to i32
  %18 = icmp eq i32 %17, 2
  br i1 %18, label %19, label %43

19:                                               ; preds = %3
  call void @llvm.lifetime.start.p0(i64 8, ptr %11) #11
  %20 = load ptr, ptr %5, align 8
  store ptr %20, ptr %11, align 8
  %21 = load ptr, ptr %11, align 8
  %22 = getelementptr inbounds nuw %struct.sockaddr_in, ptr %21, i32 0, i32 2
  %23 = getelementptr inbounds [128 x i8], ptr %8, i64 0, i64 0
  %24 = call ptr @evutil_inet_ntop(i32 noundef 2, ptr noundef %22, ptr noundef %23, i64 noundef 128)
  store ptr %24, ptr %9, align 8
  %25 = load ptr, ptr %11, align 8
  %26 = getelementptr inbounds nuw %struct.sockaddr_in, ptr %25, i32 0, i32 1
  %27 = load i16, ptr %26, align 2
  %28 = call zeroext i16 @__bswap_16(i16 noundef zeroext %27)
  %29 = zext i16 %28 to i32
  store i32 %29, ptr %10, align 4
  %30 = load ptr, ptr %9, align 8
  %31 = icmp ne ptr %30, null
  br i1 %31, label %32, label %39

32:                                               ; preds = %19
  %33 = load ptr, ptr %6, align 8
  %34 = load i64, ptr %7, align 8
  %35 = getelementptr inbounds [128 x i8], ptr %8, i64 0, i64 0
  %36 = load i32, ptr %10, align 4
  %37 = call i32 (ptr, i64, ptr, ...) @evutil_snprintf(ptr noundef %33, i64 noundef %34, ptr noundef @.str.23, ptr noundef %35, i32 noundef %36)
  %38 = load ptr, ptr %6, align 8
  store ptr %38, ptr %4, align 8
  store i32 1, ptr %12, align 4
  br label %40

39:                                               ; preds = %19
  store i32 0, ptr %12, align 4
  br label %40

40:                                               ; preds = %39, %32
  call void @llvm.lifetime.end.p0(i64 8, ptr %11) #11
  %41 = load i32, ptr %12, align 4
  switch i32 %41, label %83 [
    i32 0, label %42
  ]

42:                                               ; preds = %40
  br label %74

43:                                               ; preds = %3
  %44 = load ptr, ptr %5, align 8
  %45 = getelementptr inbounds nuw %struct.sockaddr, ptr %44, i32 0, i32 0
  %46 = load i16, ptr %45, align 2
  %47 = zext i16 %46 to i32
  %48 = icmp eq i32 %47, 10
  br i1 %48, label %49, label %73

49:                                               ; preds = %43
  call void @llvm.lifetime.start.p0(i64 8, ptr %13) #11
  %50 = load ptr, ptr %5, align 8
  store ptr %50, ptr %13, align 8
  %51 = load ptr, ptr %13, align 8
  %52 = getelementptr inbounds nuw %struct.sockaddr_in6, ptr %51, i32 0, i32 3
  %53 = getelementptr inbounds [128 x i8], ptr %8, i64 0, i64 0
  %54 = call ptr @evutil_inet_ntop(i32 noundef 10, ptr noundef %52, ptr noundef %53, i64 noundef 128)
  store ptr %54, ptr %9, align 8
  %55 = load ptr, ptr %13, align 8
  %56 = getelementptr inbounds nuw %struct.sockaddr_in6, ptr %55, i32 0, i32 1
  %57 = load i16, ptr %56, align 2
  %58 = call zeroext i16 @__bswap_16(i16 noundef zeroext %57)
  %59 = zext i16 %58 to i32
  store i32 %59, ptr %10, align 4
  %60 = load ptr, ptr %9, align 8
  %61 = icmp ne ptr %60, null
  br i1 %61, label %62, label %69

62:                                               ; preds = %49
  %63 = load ptr, ptr %6, align 8
  %64 = load i64, ptr %7, align 8
  %65 = getelementptr inbounds [128 x i8], ptr %8, i64 0, i64 0
  %66 = load i32, ptr %10, align 4
  %67 = call i32 (ptr, i64, ptr, ...) @evutil_snprintf(ptr noundef %63, i64 noundef %64, ptr noundef @.str.24, ptr noundef %65, i32 noundef %66)
  %68 = load ptr, ptr %6, align 8
  store ptr %68, ptr %4, align 8
  store i32 1, ptr %12, align 4
  br label %70

69:                                               ; preds = %49
  store i32 0, ptr %12, align 4
  br label %70

70:                                               ; preds = %69, %62
  call void @llvm.lifetime.end.p0(i64 8, ptr %13) #11
  %71 = load i32, ptr %12, align 4
  switch i32 %71, label %83 [
    i32 0, label %72
  ]

72:                                               ; preds = %70
  br label %73

73:                                               ; preds = %72, %43
  br label %74

74:                                               ; preds = %73, %42
  %75 = load ptr, ptr %6, align 8
  %76 = load i64, ptr %7, align 8
  %77 = load ptr, ptr %5, align 8
  %78 = getelementptr inbounds nuw %struct.sockaddr, ptr %77, i32 0, i32 0
  %79 = load i16, ptr %78, align 2
  %80 = zext i16 %79 to i32
  %81 = call i32 (ptr, i64, ptr, ...) @evutil_snprintf(ptr noundef %75, i64 noundef %76, ptr noundef @.str.25, i32 noundef %80)
  %82 = load ptr, ptr %6, align 8
  store ptr %82, ptr %4, align 8
  store i32 1, ptr %12, align 4
  br label %83

83:                                               ; preds = %74, %70, %40
  call void @llvm.lifetime.end.p0(i64 4, ptr %10) #11
  call void @llvm.lifetime.end.p0(i64 8, ptr %9) #11
  call void @llvm.lifetime.end.p0(i64 128, ptr %8) #11
  %84 = load ptr, ptr %4, align 8
  ret ptr %84
}