; Function Attrs: nounwind uwtable
define noundef ptr @evutil_format_sockaddr_port_(ptr noundef readonly captures(none) %0, ptr noundef returned captures(ret: address, provenance) %1, i64 noundef %2) local_unnamed_addr #0 {
  %4 = alloca [128 x i8], align 16
  call void @llvm.lifetime.start.p0(i64 128, ptr nonnull %4) #30
  %5 = load i16, ptr %0, align 2
  switch i16 %5, label %.critedge [
    i16 2, label %6
    i16 10, label %22
  ]

6:                                                ; preds = %3
  %7 = getelementptr inbounds nuw i8, ptr %0, i64 4
  %8 = load i32, ptr %7, align 4
  %9 = tail call noundef i32 @llvm.bswap.i32(i32 %8)
  %10 = lshr i32 %9, 24
  %11 = lshr i32 %9, 16
  %12 = and i32 %11, 255
  %13 = lshr i32 %9, 8
  %14 = and i32 %13, 255
  %15 = and i32 %9, 255
  %16 = call i32 (ptr, i64, ptr, ...) @evutil_snprintf(ptr noundef nonnull %4, i64 noundef 128, ptr noundef nonnull @.str.18, i32 noundef %10, i32 noundef %12, i32 noundef %14, i32 noundef %15)
  %.not117.i = icmp ugt i32 %16, 127
  br i1 %.not117.i, label %.critedge, label %17

17:                                               ; preds = %6
  %18 = getelementptr inbounds nuw i8, ptr %0, i64 2
  %19 = load i16, ptr %18, align 2
  %rev.i = tail call noundef i16 @llvm.bswap.i16(i16 %19)
  %20 = zext i16 %rev.i to i32
  %21 = call i32 (ptr, i64, ptr, ...) @evutil_snprintf(ptr noundef %1, i64 noundef %2, ptr noundef nonnull @.str.23, ptr noundef nonnull %4, i32 noundef %20)
  br label %33

22:                                               ; preds = %3
  %23 = getelementptr inbounds nuw i8, ptr %0, i64 8
  %24 = call ptr @evutil_inet_ntop(i32 noundef 10, ptr noundef nonnull %23, ptr noundef nonnull %4, i64 noundef 128)
  %.not = icmp eq ptr %24, null
  br i1 %.not, label %.critedge, label %25

25:                                               ; preds = %22
  %26 = getelementptr inbounds nuw i8, ptr %0, i64 2
  %27 = load i16, ptr %26, align 2
  %rev.i30 = call noundef i16 @llvm.bswap.i16(i16 %27)
  %28 = zext i16 %rev.i30 to i32
  %29 = call i32 (ptr, i64, ptr, ...) @evutil_snprintf(ptr noundef %1, i64 noundef %2, ptr noundef nonnull @.str.24, ptr noundef nonnull %4, i32 noundef %28)
  br label %33

.critedge:                                        ; preds = %22, %6, %3
  %30 = load i16, ptr %0, align 2
  %31 = zext i16 %30 to i32
  %32 = call i32 (ptr, i64, ptr, ...) @evutil_snprintf(ptr noundef %1, i64 noundef %2, ptr noundef nonnull @.str.25, i32 noundef %31)
  br label %33

33:                                               ; preds = %25, %17, %.critedge
  call void @llvm.lifetime.end.p0(i64 128, ptr nonnull %4) #30
  ret ptr %1
}